target datalayout = "e-m:e-p270:32:32-p271:32:32-p272:64:64-i64:64-i128:128-f80:128-n8:16:32:64-S128"
target triple = "x86_64-pc-linux-gnu"

%"class.lean::optional" = type { i8, %union.anon }
%union.anon = type { %"class.lean::expr" }
%"class.lean::expr" = type { %"class.lean::object_ref" }
%"class.lean::object_ref" = type { ptr }

; Function Attrs: mustprogress nounwind uwtable
define linkonce_odr hidden void @_ZN4lean8optionalINS_4exprEEC2Ev(ptr noundef nonnull align 8 dereferenceable(16) %0) unnamed_addr #4 comdat align 2 {
  %2 = alloca ptr, align 8
  store ptr %0, ptr %2, align 8, !tbaa !14
  %3 = load ptr, ptr %2, align 8
  %4 = getelementptr inbounds nuw %"class.lean::optional", ptr %3, i32 0, i32 0
  store i8 0, ptr %4, align 8, !tbaa !16
  ret void
}

; Function Attrs: inlinehint mustprogress uwtable
define linkonce_odr hidden void @_ZN4lean9none_exprEv(ptr dead_on_unwind noalias writable sret(%"class.lean::optional") align 8 %0) #3 comdat {
  %2 = alloca ptr, align 8
  store ptr %0, ptr %2, align 8
  call void @_ZN4lean8optionalINS_4exprEEC2Ev(ptr noundef nonnull align 8 dereferenceable(16) %0)
  ret void
}

; Function Attrs: mustprogress nounwind uwtable
define linkonce_odr hidden noundef zeroext i1 @_ZNK4lean8optionalINS_4exprEEcvbEv(ptr noundef nonnull align 8 dereferenceable(16) %0) #4 comdat align 2 {
  %2 = alloca ptr, align 8
  store ptr %0, ptr %2, align 8, !tbaa !14
  %3 = load ptr, ptr %2, align 8
  %4 = getelementptr inbounds nuw %"class.lean::optional", ptr %3, i32 0, i32 0
  %5 = load i8, ptr %4, align 8, !tbaa !16, !range !19, !noundef !20
  %6 = trunc i8 %5 to i1
  ret i1 %6
}

; Function Attrs: mustprogress uwtable
define hidden void @_ZN4lean14unfold_num_appERKNS_11environmentERKNS_4exprE(ptr dead_on_unwind noalias writable sret(%"class.lean::optional") align 8 %0, ptr noundef nonnull align 8 dereferenceable(8) %1, ptr noundef nonnull align 8 dereferenceable(8) %2) #0 personality ptr @__gxx_personality_v0 {
  %4 = alloca ptr, align 8
  %5 = alloca ptr, align 8
  %6 = alloca ptr, align 8
  %7 = alloca %"class.lean::optional", align 8
  %8 = alloca i1, align 1
  %9 = alloca i1, align 1
  %10 = alloca ptr, align 8
  %11 = alloca i32, align 4
  %12 = alloca %"class.lean::optional", align 8
  %13 = alloca i1, align 1
  %14 = alloca i1, align 1
  store ptr %0, ptr %4, align 8
  store ptr %1, ptr %5, align 8, !tbaa !12
  store ptr %2, ptr %6, align 8, !tbaa !3
  %15 = load ptr, ptr %6, align 8, !tbaa !3
  %16 = call noundef zeroext i1 @_ZN4lean7is_zeroERKNS_4exprE(ptr noundef nonnull align 8 dereferenceable(8) %15)
  store i1 false, ptr %8, align 1
  store i1 false, ptr %9, align 1
  store i1 false, ptr %13, align 1
  store i1 false, ptr %14, align 1
  br i1 %16, label %29, label %17

17:                                               ; preds = %3
  %18 = load ptr, ptr %6, align 8, !tbaa !3
  %19 = call noundef zeroext i1 @_ZN4lean6is_oneERKNS_4exprE(ptr noundef nonnull align 8 dereferenceable(8) %18)
  br i1 %19, label %29, label %20

20:                                               ; preds = %17
  call void @llvm.lifetime.start.p0(i64 16, ptr %7) #12
  store i1 true, ptr %8, align 1
  %21 = load ptr, ptr %6, align 8, !tbaa !3
  call void @_ZN4lean7is_bit0ERKNS_4exprE(ptr dead_on_unwind writable sret(%"class.lean::optional") align 8 %7, ptr noundef nonnull align 8 dereferenceable(8) %21)
  store i1 true, ptr %9, align 1
  %22 = invoke noundef zeroext i1 @_ZNK4lean8optionalINS_4exprEEcvbEv(ptr noundef nonnull align 8 dereferenceable(16) %7)
          to label %23 unwind label %46

23:                                               ; preds = %20
  br i1 %22, label %29, label %24

24:                                               ; preds = %23
  call void @llvm.lifetime.start.p0(i64 16, ptr %12) #12
  store i1 true, ptr %13, align 1
  %25 = load ptr, ptr %6, align 8, !tbaa !3
  invoke void @_ZN4lean7is_bit1ERKNS_4exprE(ptr dead_on_unwind writable sret(%"class.lean::optional") align 8 %12, ptr noundef nonnull align 8 dereferenceable(8) %25)
          to label %26 unwind label %50

26:                                               ; preds = %24
  store i1 true, ptr %14, align 1
  %27 = invoke noundef zeroext i1 @_ZNK4lean8optionalINS_4exprEEcvbEv(ptr noundef nonnull align 8 dereferenceable(16) %12)
          to label %28 unwind label %54

28:                                               ; preds = %26
  br label %29

29:                                               ; preds = %28, %23, %17, %3
  %30 = phi i1 [ true, %23 ], [ true, %17 ], [ true, %3 ], [ %27, %28 ]
  %31 = load i1, ptr %14, align 1
  br i1 %31, label %32, label %33

32:                                               ; preds = %29
  call void @_ZN4lean8optionalINS_4exprEED2Ev(ptr noundef nonnull align 8 dereferenceable(16) %12) #12
  br label %33

33:                                               ; preds = %32, %29
  %34 = load i1, ptr %13, align 1
  br i1 %34, label %35, label %36

35:                                               ; preds = %33
  call void @llvm.lifetime.end.p0(i64 16, ptr %12) #12
  br label %36

36:                                               ; preds = %35, %33
  %37 = load i1, ptr %9, align 1
  br i1 %37, label %38, label %39

38:                                               ; preds = %36
  call void @_ZN4lean8optionalINS_4exprEED2Ev(ptr noundef nonnull align 8 dereferenceable(16) %7) #12
  br label %39

39:                                               ; preds = %38, %36
  %40 = load i1, ptr %8, align 1
  br i1 %40, label %41, label %42

41:                                               ; preds = %39
  call void @llvm.lifetime.end.p0(i64 16, ptr %7) #12
  br label %42

42:                                               ; preds = %41, %39
  br i1 %30, label %43, label %72

43:                                               ; preds = %42
  %44 = load ptr, ptr %5, align 8, !tbaa !12
  %45 = load ptr, ptr %6, align 8, !tbaa !3
  call void @_ZN4lean10unfold_appERKNS_11environmentERKNS_4exprE(ptr dead_on_unwind writable sret(%"class.lean::optional") align 8 %0, ptr noundef nonnull align 8 dereferenceable(8) %44, ptr noundef nonnull align 8 dereferenceable(8) %45)
  br label %73

46:                                               ; preds = %20
  %47 = landingpad { ptr, i32 }
          cleanup
  %48 = extractvalue { ptr, i32 } %47, 0
  store ptr %48, ptr %10, align 8
  %49 = extractvalue { ptr, i32 } %47, 1
  store i32 %49, ptr %11, align 4
  br label %65

50:                                               ; preds = %24
  %51 = landingpad { ptr, i32 }
          cleanup
  %52 = extractvalue { ptr, i32 } %51, 0
  store ptr %52, ptr %10, align 8
  %53 = extractvalue { ptr, i32 } %51, 1
  store i32 %53, ptr %11, align 4
  br label %61

54:                                               ; preds = %26
  %55 = landingpad { ptr, i32 }
          cleanup
  %56 = extractvalue { ptr, i32 } %55, 0
  store ptr %56, ptr %10, align 8
  %57 = extractvalue { ptr, i32 } %55, 1
  store i32 %57, ptr %11, align 4
  %58 = load i1, ptr %14, align 1
  br i1 %58, label %59, label %60

59:                                               ; preds = %54
  call void @_ZN4lean8optionalINS_4exprEED2Ev(ptr noundef nonnull align 8 dereferenceable(16) %12) #12
  br label %60

60:                                               ; preds = %59, %54
  br label %61

61:                                               ; preds = %60, %50
  %62 = load i1, ptr %13, align 1
  br i1 %62, label %63, label %64

63:                                               ; preds = %61
  call void @llvm.lifetime.end.p0(i64 16, ptr %12) #12
  br label %64

64:                                               ; preds = %63, %61
  br label %65

65:                                               ; preds = %64, %46
  %66 = load i1, ptr %9, align 1
  br i1 %66, label %67, label %68

67:                                               ; preds = %65
  call void @_ZN4lean8optionalINS_4exprEED2Ev(ptr noundef nonnull align 8 dereferenceable(16) %7) #12
  br label %68

68:                                               ; preds = %67, %65
  %69 = load i1, ptr %8, align 1
  br i1 %69, label %70, label %71

70:                                               ; preds = %68
  call void @llvm.lifetime.end.p0(i64 16, ptr %7) #12
  br label %71

71:                                               ; preds = %70, %68
  br label %74

72:                                               ; preds = %42
  call void @_ZN4lean9none_exprEv(ptr dead_on_unwind writable sret(%"class.lean::optional") align 8 %0)
  br label %73

73:                                               ; preds = %72, %43
  ret void

74:                                               ; preds = %71
  %75 = load ptr, ptr %10, align 8
  %76 = load i32, ptr %11, align 4
  %77 = insertvalue { ptr, i32 } poison, ptr %75, 0
  %78 = insertvalue { ptr, i32 } %77, i32 %76, 1
  resume { ptr, i32 } %78
}