; Function Attrs: mustprogress uwtable
define hidden void @_ZN4lean14unfold_num_appERKNS_11environmentERKNS_4exprE(ptr dead_on_unwind noalias writable sret(%"class.lean::optional") align 8 %0, ptr noundef nonnull align 8 dereferenceable(8) %1, ptr noundef nonnull align 8 dereferenceable(8) %2) local_unnamed_addr #0 personality ptr @__gxx_personality_v0 {
  %4 = alloca %"class.lean::optional", align 8
  %5 = alloca %"class.lean::optional", align 8
  %6 = tail call noundef zeroext i1 @_ZN4lean7is_zeroERKNS_4exprE(ptr noundef nonnull align 8 dereferenceable(8) %2)
  br i1 %6, label %.critedge18.thread, label %7

7:                                                ; preds = %3
  %8 = tail call noundef zeroext i1 @_ZN4lean6is_oneERKNS_4exprE(ptr noundef nonnull align 8 dereferenceable(8) %2)
  br i1 %8, label %.critedge18.thread, label %9

9:                                                ; preds = %7
  call void @llvm.lifetime.start.p0(i64 16, ptr nonnull %4) #10
  call void @_ZN4lean7is_bit0ERKNS_4exprE(ptr dead_on_unwind nonnull writable sret(%"class.lean::optional") align 8 %4, ptr noundef nonnull align 8 dereferenceable(8) %2)
  %10 = load i8, ptr %4, align 8, !tbaa !8, !range !39, !noundef !40
  %11 = trunc nuw i8 %10 to i1
  br i1 %11, label %31, label %12

12:                                               ; preds = %9
  call void @llvm.lifetime.start.p0(i64 16, ptr nonnull %5) #10
  invoke void @_ZN4lean7is_bit1ERKNS_4exprE(ptr dead_on_unwind nonnull writable sret(%"class.lean::optional") align 8 %5, ptr noundef nonnull align 8 dereferenceable(8) %2)
          to label %13 unwind label %46

13:                                               ; preds = %12
  %14 = load i8, ptr %5, align 8, !tbaa !8, !range !39, !noundef !40
  %15 = trunc nuw i8 %14 to i1
  br i1 %15, label %16, label %48

16:                                               ; preds = %13
  %17 = getelementptr inbounds nuw i8, ptr %5, i64 8
  %18 = load ptr, ptr %17, align 8, !tbaa !3
  %19 = ptrtoint ptr %18 to i64
  %20 = and i64 %19, 1
  %.not.i.i.i = icmp eq i64 %20, 0
  br i1 %.not.i.i.i, label %21, label %.critedge18.thread31

21:                                               ; preds = %16
  %22 = load i32, ptr %18, align 4, !tbaa !17
  %23 = icmp sgt i32 %22, 1
  br i1 %23, label %24, label %26, !prof !20

24:                                               ; preds = %21
  %25 = add nsw i32 %22, -1
  store i32 %25, ptr %18, align 4, !tbaa !17
  br label %.critedge18.thread31

26:                                               ; preds = %21
  %.not.i.i.i.i = icmp eq i32 %22, 0
  br i1 %.not.i.i.i.i, label %.critedge18.thread31, label %27

27:                                               ; preds = %26
  invoke void @lean_dec_ref_cold(ptr noundef nonnull %18)
          to label %.critedge18.thread31 unwind label %28

28:                                               ; preds = %27
  %29 = landingpad { ptr, i32 }
          catch ptr null
  %30 = extractvalue { ptr, i32 } %29, 0
  tail call void @__clang_call_terminate(ptr %30) #11
  unreachable

31:                                               ; preds = %9
  %32 = getelementptr inbounds nuw i8, ptr %4, i64 8
  %33 = load ptr, ptr %32, align 8, !tbaa !3
  %34 = ptrtoint ptr %33 to i64
  %35 = and i64 %34, 1
  %.not.i.i.i19 = icmp eq i64 %35, 0
  br i1 %.not.i.i.i19, label %36, label %.critedge18.thread.sink.split

36:                                               ; preds = %31
  %37 = load i32, ptr %33, align 4, !tbaa !17
  %38 = icmp sgt i32 %37, 1
  br i1 %38, label %39, label %41, !prof !20

39:                                               ; preds = %36
  %40 = add nsw i32 %37, -1
  store i32 %40, ptr %33, align 4, !tbaa !17
  br label %.critedge18.thread.sink.split

41:                                               ; preds = %36
  %.not.i.i.i.i20 = icmp eq i32 %37, 0
  br i1 %.not.i.i.i.i20, label %.critedge18.thread.sink.split, label %42

42:                                               ; preds = %41
  invoke void @lean_dec_ref_cold(ptr noundef nonnull %33)
          to label %.critedge18.thread.sink.split unwind label %43

43:                                               ; preds = %42
  %44 = landingpad { ptr, i32 }
          catch ptr null
  %45 = extractvalue { ptr, i32 } %44, 0
  tail call void @__clang_call_terminate(ptr %45) #11
  unreachable

.critedge18.thread31:                             ; preds = %27, %26, %24, %16
  call void @llvm.lifetime.end.p0(i64 16, ptr nonnull %5) #10
  br label %.critedge18.thread.sink.split

.critedge18.thread.sink.split:                    ; preds = %31, %39, %41, %42, %.critedge18.thread31
  call void @llvm.lifetime.end.p0(i64 16, ptr nonnull %4) #10
  br label %.critedge18.thread

.critedge18.thread:                               ; preds = %.critedge18.thread.sink.split, %7, %3
  tail call void @_ZN4lean10unfold_appERKNS_11environmentERKNS_4exprE(ptr dead_on_unwind writable sret(%"class.lean::optional") align 8 %0, ptr noundef nonnull align 8 dereferenceable(8) %1, ptr noundef nonnull align 8 dereferenceable(8) %2)
  br label %49

46:                                               ; preds = %12
  %47 = landingpad { ptr, i32 }
          cleanup
  call void @llvm.lifetime.end.p0(i64 16, ptr nonnull %5) #10
  call void @_ZN4lean8optionalINS_4exprEED2Ev(ptr noundef nonnull align 8 dereferenceable(16) %4) #10
  call void @llvm.lifetime.end.p0(i64 16, ptr nonnull %4) #10
  resume { ptr, i32 } %47

48:                                               ; preds = %13
  call void @llvm.lifetime.end.p0(i64 16, ptr nonnull %5) #10
  call void @llvm.lifetime.end.p0(i64 16, ptr nonnull %4) #10
  store i8 0, ptr %0, align 8, !tbaa !8, !alias.scope !41
  br label %49

49:                                               ; preds = %48, %.critedge18.thread
  ret void
}